target datalayout = "e-m:e-p270:32:32-p271:32:32-p272:64:64-i64:64-i128:128-f80:128-n8:16:32:64-S128"
target triple = "x86_64-pc-linux-gnu"

%struct.PJconsts = type <{ ptr, ptr, ptr, ptr, ptr, ptr, ptr, ptr, ptr, ptr, ptr, ptr, i32, [4 x i8], ptr, ptr, ptr, ptr, ptr, ptr, ptr, ptr, double, double, double, double, double, double, double, double, double, double, double, double, double, double, double, double, double, double, double, double, double, double, i32, i32, i32, i32, i32, i32, i32, i32, i32, i32, i32, [4 x i8], ptr, ptr, ptr, ptr, ptr, ptr, double, double, double, double, double, double, double, double, double, double, double, i32, [4 x i8], [7 x double], i32, [4 x i8], ptr, ptr, double, double, i32, [4 x i8], %"class.std::shared_ptr", i8, [7 x i8], double, i8, [7 x i8], %"class.std::__cxx11::basic_string", %"class.std::__cxx11::basic_string", %"class.std::__cxx11::basic_string", i8, [7 x i8], %"class.std::vector", i32, [4 x i8], %"class.std::vector.6", i32, i8, i8, i8, i8 }>
%"class.std::shared_ptr" = type { %"class.std::__shared_ptr" }
%"class.std::__shared_ptr" = type { ptr, %"class.std::__shared_count" }
%"class.std::__shared_count" = type { ptr }
%"class.std::__cxx11::basic_string" = type { %"struct.std::__cxx11::basic_string<char>::_Alloc_hider", i64, %union.anon }
%"struct.std::__cxx11::basic_string<char>::_Alloc_hider" = type { ptr }
%union.anon = type { i64, [8 x i8] }
%"class.std::vector" = type { %"struct.std::_Vector_base" }
%"struct.std::_Vector_base" = type { %"struct.std::_Vector_base<osgeo::proj::operation::GridDescription, std::allocator<osgeo::proj::operation::GridDescription>>::_Vector_impl" }
%"struct.std::_Vector_base<osgeo::proj::operation::GridDescription, std::allocator<osgeo::proj::operation::GridDescription>>::_Vector_impl" = type { %"struct.std::_Vector_base<osgeo::proj::operation::GridDescription, std::allocator<osgeo::proj::operation::GridDescription>>::_Vector_impl_data" }
%"struct.std::_Vector_base<osgeo::proj::operation::GridDescription, std::allocator<osgeo::proj::operation::GridDescription>>::_Vector_impl_data" = type { ptr, ptr, ptr }
%"class.std::vector.6" = type { %"struct.std::_Vector_base.7" }
%"struct.std::_Vector_base.7" = type { %"struct.std::_Vector_base<PJCoordOperation, std::allocator<PJCoordOperation>>::_Vector_impl" }
%"struct.std::_Vector_base<PJCoordOperation, std::allocator<PJCoordOperation>>::_Vector_impl" = type { %"struct.std::_Vector_base<PJCoordOperation, std::allocator<PJCoordOperation>>::_Vector_impl_data" }
%"struct.std::_Vector_base<PJCoordOperation, std::allocator<PJCoordOperation>>::_Vector_impl_data" = type { ptr, ptr, ptr }

@_ZL14des_vgridshift = internal constant [20 x i8] c"Vertical grid shift\00", align 16
@.str = private unnamed_addr constant [11 x i8] c"vgridshift\00", align 1

; Function Attrs: mustprogress uwtable
define hidden ptr @pj_vgridshift(ptr noundef %0) #4 {
  %2 = alloca ptr, align 8
  %3 = alloca ptr, align 8
  store ptr %0, ptr %3, align 8
  %4 = load ptr, ptr %3, align 8
  %5 = icmp ne ptr %4, null
  br i1 %5, label %6, label %9

6:                                                ; preds = %1
  %7 = load ptr, ptr %3, align 8
  %8 = call noundef ptr @_Z39pj_projection_specific_setup_vgridshiftP8PJconsts(ptr noundef %7)
  store ptr %8, ptr %2, align 8
  br label %26

9:                                                ; preds = %1
  %10 = call noundef ptr @_Z6pj_newv()
  store ptr %10, ptr %3, align 8
  %11 = load ptr, ptr %3, align 8
  %12 = icmp eq ptr null, %11
  br i1 %12, label %13, label %14

13:                                               ; preds = %9
  store ptr null, ptr %2, align 8
  br label %26

14:                                               ; preds = %9
  %15 = load ptr, ptr %3, align 8
  %16 = getelementptr inbounds %struct.PJconsts, ptr %15, i32 0, i32 1
  store ptr @.str, ptr %16, align 8
  %17 = load ptr, ptr %3, align 8
  %18 = getelementptr inbounds %struct.PJconsts, ptr %17, i32 0, i32 2
  store ptr @_ZL14des_vgridshift, ptr %18, align 8
  %19 = load ptr, ptr %3, align 8
  %20 = getelementptr inbounds %struct.PJconsts, ptr %19, i32 0, i32 48
  store i32 0, ptr %20, align 8
  %21 = load ptr, ptr %3, align 8
  %22 = getelementptr inbounds %struct.PJconsts, ptr %21, i32 0, i32 53
  store i32 4, ptr %22, align 4
  %23 = load ptr, ptr %3, align 8
  %24 = getelementptr inbounds %struct.PJconsts, ptr %23, i32 0, i32 54
  store i32 1, ptr %24, align 8
  %25 = load ptr, ptr %3, align 8
  store ptr %25, ptr %2, align 8
  br label %26

26:                                               ; preds = %14, %13, %6
  %27 = load ptr, ptr %2, align 8
  ret ptr %27
}